target datalayout = "e-m:e-p270:32:32-p271:32:32-p272:64:64-i64:64-i128:128-f80:128-n8:16:32:64-S128"
target triple = "x86_64-pc-linux-gnu"

%"class.base::ProcessMetrics" = type <{ i32, i32, %"class.base::TimeTicks", i64, %"class.base::TimeTicks", i64, i32, [4 x i8] }>
%"class.base::TimeTicks" = type { %"class.base::time_internal::TimeBase" }
%"class.base::time_internal::TimeBase" = type { i64 }
%"class.base::TimeDelta" = type { i64 }

; Function Attrs: mustprogress nounwind uwtable
define linkonce_odr void @_ZN4base9TimeDeltaC2El(ptr noundef nonnull align 8 dereferenceable(8) %0, i64 noundef %1) unnamed_addr #1 comdat align 2 {
  %3 = alloca ptr, align 8
  %4 = alloca i64, align 8
  store ptr %0, ptr %3, align 8, !tbaa !48
  store i64 %1, ptr %4, align 8, !tbaa !17
  %5 = load ptr, ptr %3, align 8
  %6 = getelementptr inbounds nuw %"class.base::TimeDelta", ptr %5, i32 0, i32 0
  %7 = load i64, ptr %4, align 8, !tbaa !17
  store i64 %7, ptr %6, align 8, !tbaa !50
  ret void
}

; Function Attrs: mustprogress uwtable
define linkonce_odr i64 @_ZN4base9TimeDelta16FromMicrosecondsEl(i64 noundef %0) #0 comdat align 2 {
  %2 = alloca %"class.base::TimeDelta", align 8
  %3 = alloca i64, align 8
  store i64 %0, ptr %3, align 8, !tbaa !17
  %4 = load i64, ptr %3, align 8, !tbaa !17
  call void @_ZN4base9TimeDeltaC2El(ptr noundef nonnull align 8 dereferenceable(8) %2, i64 noundef %4)
  %5 = getelementptr inbounds nuw %"class.base::TimeDelta", ptr %2, i32 0, i32 0
  %6 = load i64, ptr %5, align 8
  ret i64 %6
}

; Function Attrs: mustprogress uwtable
define linkonce_odr i64 @_ZNK4base9TimeDeltamiES0_(ptr noundef nonnull align 8 dereferenceable(8) %0, i64 %1) #0 comdat align 2 {
  %3 = alloca %"class.base::TimeDelta", align 8
  %4 = alloca %"class.base::TimeDelta", align 8
  %5 = alloca ptr, align 8
  %6 = alloca %"class.base::TimeDelta", align 8
  %7 = getelementptr inbounds nuw %"class.base::TimeDelta", ptr %4, i32 0, i32 0
  store i64 %1, ptr %7, align 8
  store ptr %0, ptr %5, align 8, !tbaa !48
  %8 = load ptr, ptr %5, align 8
  call void @llvm.memcpy.p0.p0.i64(ptr align 8 %6, ptr align 8 %8, i64 8, i1 false), !tbaa.struct !39
  %9 = getelementptr inbounds nuw %"class.base::TimeDelta", ptr %4, i32 0, i32 0
  %10 = load i64, ptr %9, align 8, !tbaa !50
  %11 = getelementptr inbounds nuw %"class.base::TimeDelta", ptr %6, i32 0, i32 0
  %12 = load i64, ptr %11, align 8
  %13 = call noundef i64 @_ZN4base13time_internal12SaturatedSubENS_9TimeDeltaEl(i64 %12, i64 noundef %10)
  call void @_ZN4base9TimeDeltaC2El(ptr noundef nonnull align 8 dereferenceable(8) %3, i64 noundef %13)
  %14 = getelementptr inbounds nuw %"class.base::TimeDelta", ptr %3, i32 0, i32 0
  %15 = load i64, ptr %14, align 8
  ret i64 %15
}

; Function Attrs: mustprogress nounwind uwtable
define linkonce_odr noundef zeroext i1 @_ZNK4base9TimeDeltaltES0_(ptr noundef nonnull align 8 dereferenceable(8) %0, i64 %1) #1 comdat align 2 {
  %3 = alloca %"class.base::TimeDelta", align 8
  %4 = alloca ptr, align 8
  %5 = getelementptr inbounds nuw %"class.base::TimeDelta", ptr %3, i32 0, i32 0
  store i64 %1, ptr %5, align 8
  store ptr %0, ptr %4, align 8, !tbaa !48
  %6 = load ptr, ptr %4, align 8
  %7 = getelementptr inbounds nuw %"class.base::TimeDelta", ptr %6, i32 0, i32 0
  %8 = load i64, ptr %7, align 8, !tbaa !50
  %9 = getelementptr inbounds nuw %"class.base::TimeDelta", ptr %3, i32 0, i32 0
  %10 = load i64, ptr %9, align 8, !tbaa !50
  %11 = icmp slt i64 %8, %10
  ret i1 %11
}

; Function Attrs: mustprogress nounwind uwtable
define linkonce_odr noundef zeroext i1 @_ZNK4base9TimeDelta7is_zeroEv(ptr noundef nonnull align 8 dereferenceable(8) %0) #1 comdat align 2 {
  %2 = alloca ptr, align 8
  store ptr %0, ptr %2, align 8, !tbaa !48
  %3 = load ptr, ptr %2, align 8
  %4 = getelementptr inbounds nuw %"class.base::TimeDelta", ptr %3, i32 0, i32 0
  %5 = load i64, ptr %4, align 8, !tbaa !50
  %6 = icmp eq i64 %5, 0
  ret i1 %6
}

; Function Attrs: mustprogress uwtable
define linkonce_odr i64 @_ZNK4base13time_internal8TimeBaseINS_9TimeTicksEEmiES2_(ptr noundef nonnull align 8 dereferenceable(8) %0, i64 %1) #0 comdat align 2 {
  %3 = alloca %"class.base::TimeDelta", align 8
  %4 = alloca %"class.base::TimeTicks", align 8
  %5 = alloca ptr, align 8
  %6 = getelementptr inbounds nuw %"class.base::TimeTicks", ptr %4, i32 0, i32 0
  %7 = getelementptr inbounds nuw %"class.base::time_internal::TimeBase", ptr %6, i32 0, i32 0
  store i64 %1, ptr %7, align 8
  store ptr %0, ptr %5, align 8, !tbaa !45
  %8 = load ptr, ptr %5, align 8
  %9 = getelementptr inbounds nuw %"class.base::time_internal::TimeBase", ptr %8, i32 0, i32 0
  %10 = load i64, ptr %9, align 8, !tbaa !47
  %11 = getelementptr inbounds nuw %"class.base::time_internal::TimeBase", ptr %4, i32 0, i32 0
  %12 = load i64, ptr %11, align 8, !tbaa !47
  %13 = sub nsw i64 %10, %12
  %14 = call i64 @_ZN4base9TimeDelta16FromMicrosecondsEl(i64 noundef %13)
  %15 = getelementptr inbounds nuw %"class.base::TimeDelta", ptr %3, i32 0, i32 0
  store i64 %14, ptr %15, align 8
  %16 = getelementptr inbounds nuw %"class.base::TimeDelta", ptr %3, i32 0, i32 0
  %17 = load i64, ptr %16, align 8
  ret i64 %17
}

; Function Attrs: mustprogress uwtable
define noundef double @_ZN4base14ProcessMetrics11GetCPUUsageEv(ptr noundef nonnull align 8 dereferenceable(44) %0) #0 align 2 {
  %2 = alloca double, align 8
  %3 = alloca ptr, align 8
  %4 = alloca %"class.base::TimeTicks", align 8
  %5 = alloca i32, align 4
  %6 = alloca %"class.base::TimeDelta", align 8
  %7 = alloca %"class.base::TimeTicks", align 8
  %8 = alloca i32, align 4
  %9 = alloca %"class.base::TimeDelta", align 8
  %10 = alloca %"class.base::TimeDelta", align 8
  %11 = alloca double, align 8
  %12 = alloca %"class.base::TimeDelta", align 8
  %13 = alloca %"class.base::TimeDelta", align 8
  %14 = alloca %"class.base::TimeDelta", align 8
  store ptr %0, ptr %3, align 8, !tbaa !7
  %15 = load ptr, ptr %3, align 8
  call void @llvm.lifetime.start.p0(i64 8, ptr %4) #18
  %16 = call i64 @_ZN4base9TimeTicks3NowEv()
  %17 = getelementptr inbounds nuw %"class.base::TimeTicks", ptr %4, i32 0, i32 0
  %18 = getelementptr inbounds nuw %"class.base::time_internal::TimeBase", ptr %17, i32 0, i32 0
  store i64 %16, ptr %18, align 8
  %19 = getelementptr inbounds nuw %"class.base::ProcessMetrics", ptr %15, i32 0, i32 6
  %20 = load i32, ptr %19, align 8, !tbaa !36
  %21 = icmp eq i32 %20, 0
  br i1 %21, label %22, label %28

22:                                               ; preds = %1
  %23 = getelementptr inbounds nuw %"class.base::ProcessMetrics", ptr %15, i32 0, i32 2
  call void @llvm.memcpy.p0.p0.i64(ptr align 8 %23, ptr align 8 %4, i64 8, i1 false)
  %24 = getelementptr inbounds nuw %"class.base::ProcessMetrics", ptr %15, i32 0, i32 0
  %25 = load i32, ptr %24, align 8, !tbaa !10
  %26 = call noundef i32 @_ZN4base12_GLOBAL__N_113GetProcessCPUEi(i32 noundef %25)
  %27 = getelementptr inbounds nuw %"class.base::ProcessMetrics", ptr %15, i32 0, i32 6
  store i32 %26, ptr %27, align 8, !tbaa !36
  store double 0.000000e+00, ptr %2, align 8
  store i32 1, ptr %5, align 4
  br label %66

28:                                               ; preds = %1
  call void @llvm.lifetime.start.p0(i64 8, ptr %6) #18
  %29 = getelementptr inbounds nuw %"class.base::ProcessMetrics", ptr %15, i32 0, i32 2
  call void @llvm.memcpy.p0.p0.i64(ptr align 8 %7, ptr align 8 %29, i64 8, i1 false)
  %30 = getelementptr inbounds nuw %"class.base::TimeTicks", ptr %7, i32 0, i32 0
  %31 = getelementptr inbounds nuw %"class.base::time_internal::TimeBase", ptr %30, i32 0, i32 0
  %32 = load i64, ptr %31, align 8
  %33 = call i64 @_ZNK4base13time_internal8TimeBaseINS_9TimeTicksEEmiES2_(ptr noundef nonnull align 8 dereferenceable(8) %4, i64 %32)
  %34 = getelementptr inbounds nuw %"class.base::TimeDelta", ptr %6, i32 0, i32 0
  store i64 %33, ptr %34, align 8
  %35 = call noundef zeroext i1 @_ZNK4base9TimeDelta7is_zeroEv(ptr noundef nonnull align 8 dereferenceable(8) %6)
  br i1 %35, label %36, label %37

36:                                               ; preds = %28
  store double 0.000000e+00, ptr %2, align 8
  store i32 1, ptr %5, align 4
  br label %65

37:                                               ; preds = %28
  call void @llvm.lifetime.start.p0(i64 4, ptr %8) #18
  %38 = getelementptr inbounds nuw %"class.base::ProcessMetrics", ptr %15, i32 0, i32 0
  %39 = load i32, ptr %38, align 8, !tbaa !10
  %40 = call noundef i32 @_ZN4base12_GLOBAL__N_113GetProcessCPUEi(i32 noundef %39)
  store i32 %40, ptr %8, align 4, !tbaa !3
  call void @llvm.lifetime.start.p0(i64 8, ptr %9) #18
  %41 = load i32, ptr %8, align 4, !tbaa !3
  %42 = call i64 @_ZN4base8internal21ClockTicksToTimeDeltaEi(i32 noundef %41)
  %43 = getelementptr inbounds nuw %"class.base::TimeDelta", ptr %9, i32 0, i32 0
  store i64 %42, ptr %43, align 8
  call void @llvm.lifetime.start.p0(i64 8, ptr %10) #18
  %44 = getelementptr inbounds nuw %"class.base::ProcessMetrics", ptr %15, i32 0, i32 6
  %45 = load i32, ptr %44, align 8, !tbaa !36
  %46 = call i64 @_ZN4base8internal21ClockTicksToTimeDeltaEi(i32 noundef %45)
  %47 = getelementptr inbounds nuw %"class.base::TimeDelta", ptr %10, i32 0, i32 0
  store i64 %46, ptr %47, align 8
  call void @llvm.lifetime.start.p0(i64 8, ptr %11) #18
  store double 0.000000e+00, ptr %11, align 8, !tbaa !37
  call void @llvm.memcpy.p0.p0.i64(ptr align 8 %12, ptr align 8 %9, i64 8, i1 false), !tbaa.struct !39
  %48 = getelementptr inbounds nuw %"class.base::TimeDelta", ptr %12, i32 0, i32 0
  %49 = load i64, ptr %48, align 8
  %50 = call noundef zeroext i1 @_ZNK4base9TimeDeltaltES0_(ptr noundef nonnull align 8 dereferenceable(8) %10, i64 %49)
  br i1 %50, label %51, label %60

51:                                               ; preds = %37
  call void @llvm.lifetime.start.p0(i64 8, ptr %13) #18
  call void @llvm.memcpy.p0.p0.i64(ptr align 8 %14, ptr align 8 %10, i64 8, i1 false), !tbaa.struct !39
  %52 = getelementptr inbounds nuw %"class.base::TimeDelta", ptr %14, i32 0, i32 0
  %53 = load i64, ptr %52, align 8
  %54 = call i64 @_ZNK4base9TimeDeltamiES0_(ptr noundef nonnull align 8 dereferenceable(8) %9, i64 %53)
  %55 = getelementptr inbounds nuw %"class.base::TimeDelta", ptr %13, i32 0, i32 0
  store i64 %54, ptr %55, align 8
  %56 = call noundef double @_ZNK4base9TimeDelta10InSecondsFEv(ptr noundef nonnull align 8 dereferenceable(8) %13)
  %57 = fmul double 1.000000e+02, %56
  %58 = call noundef double @_ZNK4base9TimeDelta10InSecondsFEv(ptr noundef nonnull align 8 dereferenceable(8) %6)
  %59 = fdiv double %57, %58
  store double %59, ptr %11, align 8, !tbaa !37
  call void @llvm.lifetime.end.p0(i64 8, ptr %13) #18
  br label %60

60:                                               ; preds = %51, %37
  %61 = getelementptr inbounds nuw %"class.base::ProcessMetrics", ptr %15, i32 0, i32 2
  call void @llvm.memcpy.p0.p0.i64(ptr align 8 %61, ptr align 8 %4, i64 8, i1 false)
  %62 = load i32, ptr %8, align 4, !tbaa !3
  %63 = getelementptr inbounds nuw %"class.base::ProcessMetrics", ptr %15, i32 0, i32 6
  store i32 %62, ptr %63, align 8, !tbaa !36
  %64 = load double, ptr %11, align 8, !tbaa !37
  store double %64, ptr %2, align 8
  store i32 1, ptr %5, align 4
  call void @llvm.lifetime.end.p0(i64 8, ptr %11) #18
  call void @llvm.lifetime.end.p0(i64 8, ptr %10) #18
  call void @llvm.lifetime.end.p0(i64 8, ptr %9) #18
  call void @llvm.lifetime.end.p0(i64 4, ptr %8) #18
  br label %65

65:                                               ; preds = %60, %36
  call void @llvm.lifetime.end.p0(i64 8, ptr %6) #18
  br label %66

66:                                               ; preds = %65, %22
  call void @llvm.lifetime.end.p0(i64 8, ptr %4) #18
  %67 = load double, ptr %2, align 8
  ret double %67
}