; Function Attrs: mustprogress uwtable
define noundef double @_ZN4base14ProcessMetrics11GetCPUUsageEv(ptr noundef nonnull align 8 captures(none) dereferenceable(44) %0) local_unnamed_addr #0 align 2 {
  %2 = alloca %"class.base::TimeDelta", align 8
  %3 = alloca %"class.base::TimeDelta", align 8
  %4 = tail call i64 @_ZN4base9TimeTicks3NowEv()
  %5 = getelementptr inbounds nuw i8, ptr %0, i64 40
  %6 = load i32, ptr %5, align 8, !tbaa !45
  %7 = icmp eq i32 %6, 0
  br i1 %7, label %8, label %12

8:                                                ; preds = %1
  %9 = getelementptr inbounds nuw i8, ptr %0, i64 8
  store i64 %4, ptr %9, align 8
  %10 = load i32, ptr %0, align 8, !tbaa !11
  %11 = tail call fastcc noundef i32 @_ZN4base12_GLOBAL__N_113GetProcessCPUEi(i32 noundef %10)
  store i32 %11, ptr %5, align 8, !tbaa !45
  br label %31

12:                                               ; preds = %1
  call void @llvm.lifetime.start.p0(i64 8, ptr nonnull %2) #25
  %13 = getelementptr inbounds nuw i8, ptr %0, i64 8
  %.sroa.03.0.copyload = load i64, ptr %13, align 8
  %14 = sub nsw i64 %4, %.sroa.03.0.copyload
  store i64 %14, ptr %2, align 8
  %15 = icmp eq i64 %4, %.sroa.03.0.copyload
  br i1 %15, label %30, label %16

16:                                               ; preds = %12
  %17 = load i32, ptr %0, align 8, !tbaa !11
  %18 = tail call fastcc noundef i32 @_ZN4base12_GLOBAL__N_113GetProcessCPUEi(i32 noundef %17)
  %19 = tail call i64 @_ZN4base8internal21ClockTicksToTimeDeltaEi(i32 noundef %18)
  %20 = load i32, ptr %5, align 8, !tbaa !45
  %21 = tail call i64 @_ZN4base8internal21ClockTicksToTimeDeltaEi(i32 noundef %20)
  %22 = icmp slt i64 %21, %19
  br i1 %22, label %23, label %29

23:                                               ; preds = %16
  call void @llvm.lifetime.start.p0(i64 8, ptr nonnull %3) #25
  %24 = tail call noundef i64 @_ZN4base13time_internal12SaturatedSubENS_9TimeDeltaEl(i64 %19, i64 noundef %21)
  store i64 %24, ptr %3, align 8
  %25 = call noundef double @_ZNK4base9TimeDelta10InSecondsFEv(ptr noundef nonnull align 8 dereferenceable(8) %3)
  %26 = fmul double %25, 1.000000e+02
  %27 = call noundef double @_ZNK4base9TimeDelta10InSecondsFEv(ptr noundef nonnull align 8 dereferenceable(8) %2)
  %28 = fdiv double %26, %27
  call void @llvm.lifetime.end.p0(i64 8, ptr nonnull %3) #25
  br label %29

29:                                               ; preds = %23, %16
  %.06 = phi double [ %28, %23 ], [ 0.000000e+00, %16 ]
  store i64 %4, ptr %13, align 8
  store i32 %18, ptr %5, align 8, !tbaa !45
  br label %30

30:                                               ; preds = %12, %29
  %.1 = phi double [ %.06, %29 ], [ 0.000000e+00, %12 ]
  call void @llvm.lifetime.end.p0(i64 8, ptr nonnull %2) #25
  br label %31

31:                                               ; preds = %30, %8
  %.0 = phi double [ 0.000000e+00, %8 ], [ %.1, %30 ]
  ret double %.0
}